; Function Attrs: nounwind uwtable
define ptr @l_Lean_Meta_DiscrTree_toArray___rarg___boxed(ptr noundef %0) #2 {
  %2 = load ptr, ptr @l_Lean_Meta_DiscrTree_toArray___rarg___closed__1, align 8, !tbaa !9
  tail call void @lean_inc_heartbeat() #7
  %3 = tail call noalias ptr @mi_malloc_small(i64 noundef 40) #7
  %4 = icmp eq ptr %3, null
  br i1 %4, label %5, label %l_Lean_Meta_DiscrTree_toArray___rarg.exit

5:                                                ; preds = %1
  tail call void @lean_internal_panic_out_of_memory() #8
  unreachable

l_Lean_Meta_DiscrTree_toArray___rarg.exit:        ; preds = %1
  %6 = getelementptr inbounds nuw i8, ptr %3, i64 4
  store i32 1, ptr %3, align 4, !tbaa !4
  store i32 -184549336, ptr %6, align 4
  %7 = getelementptr inbounds nuw i8, ptr %3, i64 8
  store ptr @l_Lean_Meta_DiscrTree_toArray___rarg___lambda__2___boxed, ptr %7, align 8, !tbaa !9
  %8 = getelementptr inbounds nuw i8, ptr %3, i64 16
  store i16 5, ptr %8, align 8, !tbaa !16
  %9 = getelementptr inbounds nuw i8, ptr %3, i64 18
  store i16 2, ptr %9, align 2, !tbaa !16
  %10 = getelementptr inbounds nuw i8, ptr %3, i64 24
  store ptr inttoptr (i64 1 to ptr), ptr %10, align 8, !tbaa !9
  %11 = getelementptr inbounds nuw i8, ptr %3, i64 32
  store ptr %2, ptr %11, align 8, !tbaa !9
  %12 = load ptr, ptr @l_Lean_Meta_DiscrTree_keysAsPattern_goN___closed__1, align 8, !tbaa !9
  %13 = tail call ptr @l_Lean_PersistentHashMap_foldlMAux___at_Lean_MetavarContext_getExprAssignmentDomain___spec__2___rarg(ptr noundef nonnull %3, ptr noundef %0, ptr noundef %12) #7
  %14 = ptrtoint ptr %0 to i64
  %15 = and i64 %14, 1
  %.not = icmp eq i64 %15, 0
  br i1 %.not, label %16, label %lean_dec.exit

16:                                               ; preds = %l_Lean_Meta_DiscrTree_toArray___rarg.exit
  %17 = load i32, ptr %0, align 4, !tbaa !4
  %18 = icmp sgt i32 %17, 1
  br i1 %18, label %19, label %21, !prof !11

19:                                               ; preds = %16
  %20 = add nsw i32 %17, -1
  store i32 %20, ptr %0, align 4, !tbaa !4
  br label %lean_dec.exit

21:                                               ; preds = %16
  %.not.i = icmp eq i32 %17, 0
  br i1 %.not.i, label %lean_dec.exit, label %22

22:                                               ; preds = %21
  tail call void @lean_dec_ref_cold(ptr noundef nonnull %0) #7
  br label %lean_dec.exit

lean_dec.exit:                                    ; preds = %22, %21, %19, %l_Lean_Meta_DiscrTree_toArray___rarg.exit
  ret ptr %13
}